target datalayout = "e-m:e-p270:32:32-p271:32:32-p272:64:64-i64:64-i128:128-f80:128-n8:16:32:64-S128"
target triple = "x86_64-pc-linux-gnu"

%struct.HeapTupleData = type { i32, %struct.ItemPointerData, i32, ptr }
%struct.ItemPointerData = type { %struct.BlockIdData, i16 }
%struct.BlockIdData = type { i16, i16 }
%struct.ScanKeyData = type { i32, i16, i16, i32, i32, %struct.FmgrInfo, i64 }
%struct.FmgrInfo = type { ptr, i32, i16, i8, i8, i8, ptr, ptr, ptr }

@.str.1 = private unnamed_addr constant [14 x i8] c"tsearchcmds.c\00", align 1
@.str.14 = private unnamed_addr constant [50 x i8] c"cache lookup failed for text search dictionary %u\00", align 1
@__func__.RemoveTSConfigurationById = private unnamed_addr constant [26 x i8] c"RemoveTSConfigurationById\00", align 1

; Function Attrs: inlinehint nounwind uwtable
define internal i64 @ObjectIdGetDatum(i32 noundef %0) #5 {
  %2 = alloca i32, align 4
  store i32 %0, ptr %2, align 4
  %3 = load i32, ptr %2, align 4
  %4 = zext i32 %3 to i64
  ret i64 %4
}

; Function Attrs: nounwind uwtable
define dso_local void @RemoveTSConfigurationById(i32 noundef %0) #0 {
  %2 = alloca i32, align 4
  %3 = alloca ptr, align 8
  %4 = alloca ptr, align 8
  %5 = alloca ptr, align 8
  %6 = alloca %struct.ScanKeyData, align 8
  %7 = alloca ptr, align 8
  store i32 %0, ptr %2, align 4
  call void @llvm.lifetime.start.p0(i64 8, ptr %3) #10
  call void @llvm.lifetime.start.p0(i64 8, ptr %4) #10
  call void @llvm.lifetime.start.p0(i64 8, ptr %5) #10
  call void @llvm.lifetime.start.p0(i64 72, ptr %6) #10
  call void @llvm.lifetime.start.p0(i64 8, ptr %7) #10
  %8 = call ptr @table_open(i32 noundef 3602, i32 noundef 3)
  store ptr %8, ptr %3, align 8
  %9 = load i32, ptr %2, align 4
  %10 = call i64 @ObjectIdGetDatum(i32 noundef %9)
  %11 = call ptr @SearchSysCache1(i32 noundef 74, i64 noundef %10)
  store ptr %11, ptr %5, align 8
  %12 = load ptr, ptr %5, align 8
  %13 = icmp ne ptr %12, null
  br i1 %13, label %26, label %14

14:                                               ; preds = %1
  br label %15

15:                                               ; preds = %14
  br i1 true, label %16, label %18

16:                                               ; preds = %15
  %17 = call zeroext i1 @errstart_cold(i32 noundef 21, ptr noundef null) #11
  br i1 %17, label %20, label %23

18:                                               ; preds = %15
  %19 = call zeroext i1 @errstart(i32 noundef 21, ptr noundef null)
  br i1 %19, label %20, label %23

20:                                               ; preds = %18, %16
  %21 = load i32, ptr %2, align 4
  %22 = call i32 (ptr, ...) @errmsg_internal(ptr noundef @.str.14, i32 noundef %21)
  call void @errfinish(ptr noundef @.str.1, i32 noundef 1123, ptr noundef @__func__.RemoveTSConfigurationById)
  br label %23

23:                                               ; preds = %20, %18, %16
  unreachable

24:                                               ; No predecessors!
  br label %25

25:                                               ; preds = %24
  br label %26

26:                                               ; preds = %25, %1
  %27 = load ptr, ptr %3, align 8
  %28 = load ptr, ptr %5, align 8
  %29 = getelementptr inbounds nuw %struct.HeapTupleData, ptr %28, i32 0, i32 1
  call void @CatalogTupleDelete(ptr noundef %27, ptr noundef %29)
  %30 = load ptr, ptr %5, align 8
  call void @ReleaseSysCache(ptr noundef %30)
  %31 = load ptr, ptr %3, align 8
  call void @table_close(ptr noundef %31, i32 noundef 3)
  %32 = call ptr @table_open(i32 noundef 3603, i32 noundef 3)
  store ptr %32, ptr %4, align 8
  %33 = load i32, ptr %2, align 4
  %34 = call i64 @ObjectIdGetDatum(i32 noundef %33)
  call void @ScanKeyInit(ptr noundef %6, i16 noundef signext 1, i16 noundef zeroext 3, i32 noundef 184, i64 noundef %34)
  %35 = load ptr, ptr %4, align 8
  %36 = call ptr @systable_beginscan(ptr noundef %35, i32 noundef 3609, i1 noundef zeroext true, ptr noundef null, i32 noundef 1, ptr noundef %6)
  store ptr %36, ptr %7, align 8
  br label %37

37:                                               ; preds = %41, %26
  %38 = load ptr, ptr %7, align 8
  %39 = call ptr @systable_getnext(ptr noundef %38)
  store ptr %39, ptr %5, align 8
  %40 = icmp ne ptr %39, null
  br i1 %40, label %41, label %45

41:                                               ; preds = %37
  %42 = load ptr, ptr %4, align 8
  %43 = load ptr, ptr %5, align 8
  %44 = getelementptr inbounds nuw %struct.HeapTupleData, ptr %43, i32 0, i32 1
  call void @CatalogTupleDelete(ptr noundef %42, ptr noundef %44)
  br label %37, !llvm.loop !20

45:                                               ; preds = %37
  %46 = load ptr, ptr %7, align 8
  call void @systable_endscan(ptr noundef %46)
  %47 = load ptr, ptr %4, align 8
  call void @table_close(ptr noundef %47, i32 noundef 3)
  call void @llvm.lifetime.end.p0(i64 8, ptr %7) #10
  call void @llvm.lifetime.end.p0(i64 72, ptr %6) #10
  call void @llvm.lifetime.end.p0(i64 8, ptr %5) #10
  call void @llvm.lifetime.end.p0(i64 8, ptr %4) #10
  call void @llvm.lifetime.end.p0(i64 8, ptr %3) #10
  ret void
}