; Function Attrs: nounwind uwtable
define dso_local void @RemoveTSConfigurationById(i32 noundef %0) local_unnamed_addr #0 {
  %2 = alloca %struct.ScanKeyData, align 8
  call void @llvm.lifetime.start.p0(i64 72, ptr nonnull %2) #10
  %3 = tail call ptr @table_open(i32 noundef 3602, i32 noundef 3) #10
  %4 = zext i32 %0 to i64
  %5 = tail call ptr @SearchSysCache1(i32 noundef 74, i64 noundef %4) #10
  %.not = icmp eq ptr %5, null
  br i1 %.not, label %6, label %9

6:                                                ; preds = %1
  %7 = tail call zeroext i1 @errstart_cold(i32 noundef 21, ptr noundef null) #11
  tail call void @llvm.assume(i1 %7)
  %8 = tail call i32 (ptr, ...) @errmsg_internal(ptr noundef nonnull @.str.14, i32 noundef %0) #10
  tail call void @errfinish(ptr noundef nonnull @.str.1, i32 noundef 1123, ptr noundef nonnull @__func__.RemoveTSConfigurationById) #10
  unreachable

9:                                                ; preds = %1
  %10 = getelementptr inbounds nuw i8, ptr %5, i64 4
  tail call void @CatalogTupleDelete(ptr noundef %3, ptr noundef nonnull %10) #10
  tail call void @ReleaseSysCache(ptr noundef nonnull %5) #10
  tail call void @table_close(ptr noundef %3, i32 noundef 3) #10
  %11 = tail call ptr @table_open(i32 noundef 3603, i32 noundef 3) #10
  call void @ScanKeyInit(ptr noundef nonnull %2, i16 noundef signext 1, i16 noundef zeroext 3, i32 noundef 184, i64 noundef %4) #10
  %12 = call ptr @systable_beginscan(ptr noundef %11, i32 noundef 3609, i1 noundef zeroext true, ptr noundef null, i32 noundef 1, ptr noundef nonnull %2) #10
  %13 = call ptr @systable_getnext(ptr noundef %12) #10
  %.not1415 = icmp eq ptr %13, null
  br i1 %.not1415, label %._crit_edge, label %.lr.ph

.lr.ph:                                           ; preds = %9, %.lr.ph
  %14 = phi ptr [ %16, %.lr.ph ], [ %13, %9 ]
  %15 = getelementptr inbounds nuw i8, ptr %14, i64 4
  call void @CatalogTupleDelete(ptr noundef %11, ptr noundef nonnull %15) #10
  %16 = call ptr @systable_getnext(ptr noundef %12) #10
  %.not14 = icmp eq ptr %16, null
  br i1 %.not14, label %._crit_edge, label %.lr.ph, !llvm.loop !13

._crit_edge:                                      ; preds = %.lr.ph, %9
  call void @systable_endscan(ptr noundef %12) #10
  call void @table_close(ptr noundef %11, i32 noundef 3) #10
  call void @llvm.lifetime.end.p0(i64 72, ptr nonnull %2) #10
  ret void
}